; Function Attrs: nounwind uwtable
define dso_local void @Curl_resolv_unlock(ptr noundef %0, ptr noundef %1) local_unnamed_addr #0 {
  %.not = icmp eq ptr %0, null
  br i1 %.not, label %.critedge, label %3

3:                                                ; preds = %2
  %4 = getelementptr inbounds nuw i8, ptr %0, i64 208
  %5 = load ptr, ptr %4, align 8
  %.not7 = icmp eq ptr %5, null
  br i1 %.not7, label %8, label %6

6:                                                ; preds = %3
  %7 = tail call i32 @Curl_share_lock(ptr noundef nonnull %0, i32 noundef 3, i32 noundef 2) #12
  br label %8

8:                                                ; preds = %6, %3
  %9 = getelementptr inbounds nuw i8, ptr %1, i64 16
  %10 = load i64, ptr %9, align 8
  %11 = add nsw i64 %10, -1
  store i64 %11, ptr %9, align 8
  %12 = icmp eq i64 %11, 0
  br i1 %12, label %13, label %freednsentry.exit

13:                                               ; preds = %8
  %14 = load ptr, ptr %1, align 8
  tail call void @Curl_freeaddrinfo(ptr noundef %14) #12
  %15 = load ptr, ptr @Curl_cfree, align 8
  tail call void %15(ptr noundef nonnull %1) #12
  br label %freednsentry.exit

freednsentry.exit:                                ; preds = %13, %8
  %16 = load ptr, ptr %4, align 8
  %.not8 = icmp eq ptr %16, null
  br i1 %.not8, label %freednsentry.exit9, label %17

17:                                               ; preds = %freednsentry.exit
  %18 = tail call i32 @Curl_share_unlock(ptr noundef nonnull %0, i32 noundef 3) #12
  br label %freednsentry.exit9

.critedge:                                        ; preds = %2
  %19 = getelementptr inbounds nuw i8, ptr %1, i64 16
  %20 = load i64, ptr %19, align 8
  %21 = add nsw i64 %20, -1
  store i64 %21, ptr %19, align 8
  %22 = icmp eq i64 %21, 0
  br i1 %22, label %23, label %freednsentry.exit9

23:                                               ; preds = %.critedge
  %24 = load ptr, ptr %1, align 8
  tail call void @Curl_freeaddrinfo(ptr noundef %24) #12
  %25 = load ptr, ptr @Curl_cfree, align 8
  tail call void %25(ptr noundef nonnull %1) #12
  br label %freednsentry.exit9

freednsentry.exit9:                               ; preds = %23, %.critedge, %17, %freednsentry.exit
  ret void
}